; Function Attrs: mustprogress uwtable
define void @_ZN7rocksdb19TransactionBaseImpl21RebuildFromWriteBatchEPNS_10WriteBatchE(ptr dead_on_unwind noalias writable sret(%"class.rocksdb::Status") align 8 %0, ptr noundef nonnull align 8 dereferenceable(400) %1, ptr noundef nonnull %2) unnamed_addr #4 align 2 personality ptr @__gxx_personality_v0 {
  %4 = alloca %struct.IndexedWriteBatchBuilder, align 8
  call void @llvm.lifetime.start.p0(i64 24, ptr nonnull %4) #29
  %5 = getelementptr inbounds nuw i8, ptr %1, i64 72
  %6 = load ptr, ptr %5, align 8, !tbaa !133
  store ptr getelementptr inbounds nuw inrange(-16, 192) (i8, ptr @_ZTVZN7rocksdb19TransactionBaseImpl21RebuildFromWriteBatchEPNS_10WriteBatchEE24IndexedWriteBatchBuilder, i64 16), ptr %4, align 8, !tbaa !27
  %7 = getelementptr inbounds nuw i8, ptr %4, i64 8
  store ptr %1, ptr %7, align 8, !tbaa !760
  %8 = getelementptr inbounds nuw i8, ptr %4, i64 16
  store ptr %6, ptr %8, align 8, !tbaa !764
  invoke void @_ZNK7rocksdb10WriteBatch7IterateEPNS0_7HandlerE(ptr dead_on_unwind writable sret(%"class.rocksdb::Status") align 8 %0, ptr noundef nonnull align 8 dereferenceable(160) %2, ptr noundef nonnull %4)
          to label %9 unwind label %10

9:                                                ; preds = %3
  call void @_ZN7rocksdb10WriteBatch7HandlerD2Ev(ptr noundef nonnull align 8 dereferenceable(24) %4) #29
  call void @llvm.lifetime.end.p0(i64 24, ptr nonnull %4) #29
  ret void

10:                                               ; preds = %3
  %11 = landingpad { ptr, i32 }
          cleanup
  call void @_ZN7rocksdb10WriteBatch7HandlerD2Ev(ptr noundef nonnull align 8 dereferenceable(24) %4) #29
  call void @llvm.lifetime.end.p0(i64 24, ptr nonnull %4) #29
  resume { ptr, i32 } %11
}